target datalayout = "e-m:e-p270:32:32-p271:32:32-p272:64:64-i64:64-i128:128-f80:128-n8:16:32:64-S128"
target triple = "x86_64-pc-linux-gnu"

%struct.LOCK = type { %struct.LOCKTAG, i32, i32, %struct.dlist_head, %struct.dclist_head, [10 x i32], i32, [10 x i32], i32 }
%struct.LOCKTAG = type { i32, i32, i32, i16, i8, i8 }
%struct.dlist_head = type { %struct.dlist_node }
%struct.dlist_node = type { ptr, ptr }
%struct.dclist_head = type { %struct.dlist_head, i32 }
%struct.LWLock = type { i16, %struct.pg_atomic_uint32, %struct.proclist_head }
%struct.pg_atomic_uint32 = type { i32 }
%struct.proclist_head = type { i32, i32 }
%struct.PGPROC = type { %struct.dlist_node, ptr, ptr, i32, %struct.Latch, i32, i32, i32, i32, %struct.anon, i32, i32, i32, i8, i8, i8, i8, %struct.proclist_node, %struct.proclist_node, ptr, ptr, i32, i32, %struct.pg_atomic_uint64, i32, i8, i64, i32, %struct.dlist_node, [16 x %struct.dlist_head], %struct.XidCacheStatus, %struct.XidCache, i8, %struct.pg_atomic_uint32, i32, i32, i8, %struct.pg_atomic_uint32, i32, i32, i64, i64, %struct.LWLock, ptr, ptr, i8, i32, ptr, %struct.dlist_head, %struct.dlist_node }
%struct.Latch = type { i32, i32, i8, i32 }
%struct.anon = type { i32, i32 }
%struct.proclist_node = type { i32, i32 }
%struct.pg_atomic_uint64 = type { i64 }
%struct.XidCacheStatus = type { i8, i8 }
%struct.XidCache = type { [64 x i32] }

@LockMethods = internal constant [3 x ptr] [ptr null, ptr @default_lockmethod, ptr @user_lockmethod], align 16

; Function Attrs: inlinehint nounwind uwtable
define internal void @dlist_delete_thoroughly(ptr noundef %0) #6 {
  %2 = alloca ptr, align 8
  store ptr %0, ptr %2, align 8
  %3 = load ptr, ptr %2, align 8
  %4 = getelementptr inbounds nuw %struct.dlist_node, ptr %3, i32 0, i32 1
  %5 = load ptr, ptr %4, align 8
  %6 = load ptr, ptr %2, align 8
  %7 = getelementptr inbounds nuw %struct.dlist_node, ptr %6, i32 0, i32 0
  %8 = load ptr, ptr %7, align 8
  %9 = getelementptr inbounds nuw %struct.dlist_node, ptr %8, i32 0, i32 1
  store ptr %5, ptr %9, align 8
  %10 = load ptr, ptr %2, align 8
  %11 = getelementptr inbounds nuw %struct.dlist_node, ptr %10, i32 0, i32 0
  %12 = load ptr, ptr %11, align 8
  %13 = load ptr, ptr %2, align 8
  %14 = getelementptr inbounds nuw %struct.dlist_node, ptr %13, i32 0, i32 1
  %15 = load ptr, ptr %14, align 8
  %16 = getelementptr inbounds nuw %struct.dlist_node, ptr %15, i32 0, i32 0
  store ptr %12, ptr %16, align 8
  %17 = load ptr, ptr %2, align 8
  %18 = getelementptr inbounds nuw %struct.dlist_node, ptr %17, i32 0, i32 1
  store ptr null, ptr %18, align 8
  %19 = load ptr, ptr %2, align 8
  %20 = getelementptr inbounds nuw %struct.dlist_node, ptr %19, i32 0, i32 0
  store ptr null, ptr %20, align 8
  ret void
}

; Function Attrs: inlinehint nounwind uwtable
define internal void @dlist_delete_from_thoroughly(ptr noundef %0, ptr noundef %1) #6 {
  %3 = alloca ptr, align 8
  %4 = alloca ptr, align 8
  store ptr %0, ptr %3, align 8
  store ptr %1, ptr %4, align 8
  %5 = load ptr, ptr %4, align 8
  call void @dlist_delete_thoroughly(ptr noundef %5)
  ret void
}

; Function Attrs: inlinehint nounwind uwtable
define internal void @dclist_delete_from_thoroughly(ptr noundef %0, ptr noundef %1) #6 {
  %3 = alloca ptr, align 8
  %4 = alloca ptr, align 8
  store ptr %0, ptr %3, align 8
  store ptr %1, ptr %4, align 8
  %5 = load ptr, ptr %3, align 8
  %6 = getelementptr inbounds nuw %struct.dclist_head, ptr %5, i32 0, i32 0
  %7 = load ptr, ptr %4, align 8
  call void @dlist_delete_from_thoroughly(ptr noundef %6, ptr noundef %7)
  %8 = load ptr, ptr %3, align 8
  %9 = getelementptr inbounds nuw %struct.dclist_head, ptr %8, i32 0, i32 1
  %10 = load i32, ptr %9, align 8
  %11 = add i32 %10, -1
  store i32 %11, ptr %9, align 8
  ret void
}

; Function Attrs: nounwind uwtable
define dso_local void @RemoveFromWaitQueue(ptr noundef %0, i32 noundef %1) #0 {
  %3 = alloca ptr, align 8
  %4 = alloca i32, align 4
  %5 = alloca ptr, align 8
  %6 = alloca ptr, align 8
  %7 = alloca i32, align 4
  %8 = alloca i16, align 2
  store ptr %0, ptr %3, align 8
  store i32 %1, ptr %4, align 4
  call void @llvm.lifetime.start.p0(i64 8, ptr %5) #9
  %9 = load ptr, ptr %3, align 8
  %10 = getelementptr inbounds nuw %struct.PGPROC, ptr %9, i32 0, i32 19
  %11 = load ptr, ptr %10, align 8
  store ptr %11, ptr %5, align 8
  call void @llvm.lifetime.start.p0(i64 8, ptr %6) #9
  %12 = load ptr, ptr %3, align 8
  %13 = getelementptr inbounds nuw %struct.PGPROC, ptr %12, i32 0, i32 20
  %14 = load ptr, ptr %13, align 8
  store ptr %14, ptr %6, align 8
  call void @llvm.lifetime.start.p0(i64 4, ptr %7) #9
  %15 = load ptr, ptr %3, align 8
  %16 = getelementptr inbounds nuw %struct.PGPROC, ptr %15, i32 0, i32 21
  %17 = load i32, ptr %16, align 8
  store i32 %17, ptr %7, align 4
  call void @llvm.lifetime.start.p0(i64 2, ptr %8) #9
  %18 = load ptr, ptr %5, align 8
  %19 = getelementptr inbounds nuw %struct.LOCK, ptr %18, i32 0, i32 0
  %20 = getelementptr inbounds nuw %struct.LOCKTAG, ptr %19, i32 0, i32 5
  %21 = load i8, ptr %20, align 1
  %22 = zext i8 %21 to i16
  store i16 %22, ptr %8, align 2
  %23 = load ptr, ptr %5, align 8
  %24 = getelementptr inbounds nuw %struct.LOCK, ptr %23, i32 0, i32 4
  %25 = load ptr, ptr %3, align 8
  %26 = getelementptr inbounds nuw %struct.PGPROC, ptr %25, i32 0, i32 0
  call void @dclist_delete_from_thoroughly(ptr noundef %24, ptr noundef %26)
  %27 = load ptr, ptr %5, align 8
  %28 = getelementptr inbounds nuw %struct.LOCK, ptr %27, i32 0, i32 6
  %29 = load i32, ptr %28, align 8
  %30 = add i32 %29, -1
  store i32 %30, ptr %28, align 8
  %31 = load ptr, ptr %5, align 8
  %32 = getelementptr inbounds nuw %struct.LOCK, ptr %31, i32 0, i32 5
  %33 = load i32, ptr %7, align 4
  %34 = sext i32 %33 to i64
  %35 = getelementptr inbounds [10 x i32], ptr %32, i64 0, i64 %34
  %36 = load i32, ptr %35, align 4
  %37 = add i32 %36, -1
  store i32 %37, ptr %35, align 4
  %38 = load ptr, ptr %5, align 8
  %39 = getelementptr inbounds nuw %struct.LOCK, ptr %38, i32 0, i32 7
  %40 = load i32, ptr %7, align 4
  %41 = sext i32 %40 to i64
  %42 = getelementptr inbounds [10 x i32], ptr %39, i64 0, i64 %41
  %43 = load i32, ptr %42, align 4
  %44 = load ptr, ptr %5, align 8
  %45 = getelementptr inbounds nuw %struct.LOCK, ptr %44, i32 0, i32 5
  %46 = load i32, ptr %7, align 4
  %47 = sext i32 %46 to i64
  %48 = getelementptr inbounds [10 x i32], ptr %45, i64 0, i64 %47
  %49 = load i32, ptr %48, align 4
  %50 = icmp eq i32 %43, %49
  br i1 %50, label %51, label %59

51:                                               ; preds = %2
  %52 = load i32, ptr %7, align 4
  %53 = shl i32 1, %52
  %54 = xor i32 %53, -1
  %55 = load ptr, ptr %5, align 8
  %56 = getelementptr inbounds nuw %struct.LOCK, ptr %55, i32 0, i32 2
  %57 = load i32, ptr %56, align 4
  %58 = and i32 %57, %54
  store i32 %58, ptr %56, align 4
  br label %59

59:                                               ; preds = %51, %2
  %60 = load ptr, ptr %3, align 8
  %61 = getelementptr inbounds nuw %struct.PGPROC, ptr %60, i32 0, i32 19
  store ptr null, ptr %61, align 8
  %62 = load ptr, ptr %3, align 8
  %63 = getelementptr inbounds nuw %struct.PGPROC, ptr %62, i32 0, i32 20
  store ptr null, ptr %63, align 8
  %64 = load ptr, ptr %3, align 8
  %65 = getelementptr inbounds nuw %struct.PGPROC, ptr %64, i32 0, i32 3
  store i32 2, ptr %65, align 8
  %66 = load ptr, ptr %5, align 8
  %67 = load ptr, ptr %6, align 8
  %68 = load i16, ptr %8, align 2
  %69 = zext i16 %68 to i64
  %70 = getelementptr inbounds nuw [3 x ptr], ptr @LockMethods, i64 0, i64 %69
  %71 = load ptr, ptr %70, align 8
  %72 = load i32, ptr %4, align 4
  call void @CleanUpLock(ptr noundef %66, ptr noundef %67, ptr noundef %71, i32 noundef %72, i1 noundef zeroext true)
  call void @llvm.lifetime.end.p0(i64 2, ptr %8) #9
  call void @llvm.lifetime.end.p0(i64 4, ptr %7) #9
  call void @llvm.lifetime.end.p0(i64 8, ptr %6) #9
  call void @llvm.lifetime.end.p0(i64 8, ptr %5) #9
  ret void
}