; Function Attrs: nounwind uwtable
define dso_local void @RemoveFromWaitQueue(ptr noundef captures(none) initializes((32, 36)) %0, i32 noundef %1) local_unnamed_addr #0 {
  %3 = getelementptr inbounds nuw i8, ptr %0, i64 112
  %4 = load ptr, ptr %3, align 8
  %5 = getelementptr inbounds nuw i8, ptr %0, i64 120
  %6 = load ptr, ptr %5, align 8
  %7 = getelementptr inbounds nuw i8, ptr %0, i64 128
  %8 = load i32, ptr %7, align 8
  %9 = getelementptr inbounds nuw i8, ptr %4, i64 15
  %10 = load i8, ptr %9, align 1
  %11 = getelementptr inbounds nuw i8, ptr %0, i64 8
  %12 = load ptr, ptr %11, align 8
  %13 = load ptr, ptr %0, align 8
  %14 = getelementptr inbounds nuw i8, ptr %13, i64 8
  store ptr %12, ptr %14, align 8
  %15 = load ptr, ptr %0, align 8
  store ptr %15, ptr %12, align 8
  tail call void @llvm.memset.p0.i64(ptr noundef nonnull align 8 dereferenceable(16) %0, i8 0, i64 16, i1 false)
  %16 = getelementptr inbounds nuw i8, ptr %4, i64 56
  %17 = load i32, ptr %16, align 8
  %18 = add i32 %17, -1
  store i32 %18, ptr %16, align 8
  %19 = getelementptr inbounds nuw i8, ptr %4, i64 104
  %20 = load i32, ptr %19, align 8
  %21 = add i32 %20, -1
  store i32 %21, ptr %19, align 8
  %22 = getelementptr inbounds nuw i8, ptr %4, i64 64
  %23 = sext i32 %8 to i64
  %24 = getelementptr inbounds [10 x i32], ptr %22, i64 0, i64 %23
  %25 = load i32, ptr %24, align 4
  %26 = add i32 %25, -1
  store i32 %26, ptr %24, align 4
  %27 = getelementptr inbounds nuw i8, ptr %4, i64 108
  %28 = getelementptr inbounds [10 x i32], ptr %27, i64 0, i64 %23
  %29 = load i32, ptr %28, align 4
  %30 = icmp eq i32 %29, %26
  br i1 %30, label %31, label %37

31:                                               ; preds = %2
  %32 = shl nuw i32 1, %8
  %33 = xor i32 %32, -1
  %34 = getelementptr inbounds nuw i8, ptr %4, i64 20
  %35 = load i32, ptr %34, align 4
  %36 = and i32 %35, %33
  store i32 %36, ptr %34, align 4
  br label %37

37:                                               ; preds = %31, %2
  %38 = getelementptr inbounds nuw i8, ptr %0, i64 32
  tail call void @llvm.memset.p0.i64(ptr noundef nonnull align 8 dereferenceable(16) %3, i8 0, i64 16, i1 false)
  store i32 2, ptr %38, align 8
  %39 = zext i8 %10 to i64
  %40 = getelementptr inbounds nuw [3 x ptr], ptr @LockMethods, i64 0, i64 %39
  %41 = load ptr, ptr %40, align 8
  tail call fastcc void @CleanUpLock(ptr noundef nonnull %4, ptr noundef %6, ptr noundef %41, i32 noundef %1, i1 noundef zeroext true)
  ret void
}